; Function Attrs: mustprogress uwtable
define void @_Z15dtFreeTileCacheP11dtTileCache(ptr noundef %0) local_unnamed_addr #0 {
  %.not = icmp eq ptr %0, null
  br i1 %.not, label %3, label %2

2:                                                ; preds = %1
  tail call void @_ZN11dtTileCacheD1Ev(ptr noundef nonnull align 8 dereferenceable(912) %0) #21
  tail call void @_Z6dtFreePv(ptr noundef nonnull %0)
  br label %3

3:                                                ; preds = %1, %2
  ret void
}